; Function Attrs: mustprogress uwtable
define hidden noundef i64 @_ZNK12opencv_caffe13LossParameter12ByteSizeLongEv(ptr noundef nonnull align 8 dereferenceable(40) %0) unnamed_addr #3 align 2 {
  %2 = getelementptr inbounds nuw i8, ptr %0, i64 16
  %3 = load i32, ptr %2, align 8, !tbaa !71
  %4 = and i32 %3, 7
  %.not = icmp eq i32 %4, 0
  br i1 %.not, label %33, label %5

5:                                                ; preds = %1
  %6 = and i32 %3, 1
  %.not8 = icmp eq i32 %6, 0
  br i1 %.not8, label %17, label %7

7:                                                ; preds = %5
  %8 = getelementptr inbounds nuw i8, ptr %0, i64 24
  %9 = load i32, ptr %8, align 8, !tbaa !650
  %10 = or i32 %9, 1
  %11 = sext i32 %10 to i64
  %12 = tail call range(i64 0, 65) i64 @llvm.ctlz.i64(i64 %11, i1 true)
  %13 = xor i64 %12, 63
  %14 = mul nuw nsw i64 %13, 9
  %15 = add nuw nsw i64 %14, 137
  %16 = lshr i64 %15, 6
  br label %17

17:                                               ; preds = %7, %5
  %.1 = phi i64 [ %16, %7 ], [ 0, %5 ]
  %18 = and i32 %3, 2
  %19 = zext nneg i32 %18 to i64
  %spec.select = add nuw nsw i64 %.1, %19
  %20 = and i32 %3, 4
  %.not10 = icmp eq i32 %20, 0
  br i1 %.not10, label %33, label %21

21:                                               ; preds = %17
  %22 = getelementptr inbounds nuw i8, ptr %0, i64 32
  %23 = load i32, ptr %22, align 8, !tbaa !502
  %24 = or i32 %23, 1
  %25 = sext i32 %24 to i64
  %26 = tail call range(i64 0, 65) i64 @llvm.ctlz.i64(i64 %25, i1 true)
  %27 = xor i64 %26, 63
  %28 = mul nuw nsw i64 %27, 9
  %29 = add nuw nsw i64 %28, 73
  %30 = lshr i64 %29, 6
  %31 = add nuw nsw i64 %spec.select, 1
  %32 = add nuw nsw i64 %31, %30
  br label %33

33:                                               ; preds = %17, %21, %1
  %.0 = phi i64 [ %32, %21 ], [ %spec.select, %17 ], [ 0, %1 ]
  %34 = getelementptr inbounds nuw i8, ptr %0, i64 20
  %35 = tail call noundef i64 @_ZNK6google8protobuf7Message29MaybeComputeUnknownFieldsSizeEmPNS0_8internal10CachedSizeE(ptr noundef nonnull align 8 dereferenceable(16) %0, i64 noundef %.0, ptr noundef nonnull %34)
  ret i64 %35
}